; Function Attrs: mustprogress nofree norecurse nosync nounwind willreturn memory(read, inaccessiblemem: none) uwtable
define dso_local noundef range(i32 0, 16) i32 @_ZNK5clang10ParsedAttr16getNumArgMembersEv(ptr nocapture noundef nonnull readonly align 8 dereferenceable(72) %0) local_unnamed_addr #7 align 2 {
  %2 = getelementptr inbounds nuw i8, ptr %0, i64 64
  %3 = load ptr, ptr %2, align 8
  %4 = getelementptr inbounds nuw i8, ptr %3, i64 8
  %5 = load i64, ptr %4, align 8
  %6 = trunc i64 %5 to i32
  %7 = lshr i32 %6, 24
  %8 = and i32 %7, 15
  ret i32 %8
}